target datalayout = "e-m:e-p270:32:32-p271:32:32-p272:64:64-i64:64-i128:128-f80:128-n8:16:32:64-S128"
target triple = "x86_64-unknown-linux-gnu"

%"class.icu_75::LocaleBuilder" = type { %"class.icu_75::UObject", i32, [9 x i8], [5 x i8], [4 x i8], ptr, ptr }
%"class.icu_75::UObject" = type { ptr }
%"class.icu_75::StringPiece" = type <{ ptr, i32, [4 x i8] }>

; Function Attrs: mustprogress nounwind uwtable
define linkonce_odr noundef i32 @_ZNK6icu_7511StringPiece6lengthEv(ptr noundef nonnull align 8 dereferenceable(12) %this) #0 comdat align 2 {
entry:
  %this.addr = alloca ptr, align 8
  store ptr %this, ptr %this.addr, align 8
  %this1 = load ptr, ptr %this.addr, align 8
  %length_ = getelementptr inbounds %"class.icu_75::StringPiece", ptr %this1, i32 0, i32 1
  %0 = load i32, ptr %length_, align 8
  ret i32 %0
}

; Function Attrs: mustprogress nounwind uwtable
define linkonce_odr noundef ptr @_ZNK6icu_7511StringPiece4dataEv(ptr noundef nonnull align 8 dereferenceable(12) %this) #0 comdat align 2 {
entry:
  %this.addr = alloca ptr, align 8
  store ptr %this, ptr %this.addr, align 8
  %this1 = load ptr, ptr %this.addr, align 8
  %ptr_ = getelementptr inbounds %"class.icu_75::StringPiece", ptr %this1, i32 0, i32 0
  %0 = load ptr, ptr %ptr_, align 8
  ret ptr %0
}

; Function Attrs: mustprogress nounwind uwtable
define linkonce_odr noundef signext i8 @_ZNK6icu_7511StringPiece5emptyEv(ptr noundef nonnull align 8 dereferenceable(12) %this) #0 comdat align 2 {
entry:
  %this.addr = alloca ptr, align 8
  store ptr %this, ptr %this.addr, align 8
  %this1 = load ptr, ptr %this.addr, align 8
  %length_ = getelementptr inbounds %"class.icu_75::StringPiece", ptr %this1, i32 0, i32 1
  %0 = load i32, ptr %length_, align 8
  %cmp = icmp eq i32 %0, 0
  %conv = zext i1 %cmp to i8
  ret i8 %conv
}

; Function Attrs: mustprogress nounwind uwtable
define internal noundef signext i8 @_ZL9U_FAILURE10UErrorCode(i32 noundef %code) #0 {
entry:
  %code.addr = alloca i32, align 4
  store i32 %code, ptr %code.addr, align 4
  %0 = load i32, ptr %code.addr, align 4
  %cmp = icmp sgt i32 %0, 0
  %conv = zext i1 %cmp to i8
  ret i8 %conv
}

; Function Attrs: mustprogress uwtable
define internal void @_ZN6icu_75L8setFieldENS_11StringPieceEPcR10UErrorCodePFaPKciE(ptr %input.coerce0, i32 %input.coerce1, ptr noundef %dest, ptr noundef nonnull align 4 dereferenceable(4) %errorCode, ptr noundef %test) #1 {
entry:
  %input = alloca %"class.icu_75::StringPiece", align 8
  %dest.addr = alloca ptr, align 8
  %errorCode.addr = alloca ptr, align 8
  %test.addr = alloca ptr, align 8
  %0 = getelementptr inbounds { ptr, i32 }, ptr %input, i32 0, i32 0
  store ptr %input.coerce0, ptr %0, align 8
  %1 = getelementptr inbounds { ptr, i32 }, ptr %input, i32 0, i32 1
  store i32 %input.coerce1, ptr %1, align 8
  store ptr %dest, ptr %dest.addr, align 8
  store ptr %errorCode, ptr %errorCode.addr, align 8
  store ptr %test, ptr %test.addr, align 8
  %2 = load ptr, ptr %errorCode.addr, align 8
  %3 = load i32, ptr %2, align 4
  %call = call noundef signext i8 @_ZL9U_FAILURE10UErrorCode(i32 noundef %3)
  %tobool = icmp ne i8 %call, 0
  br i1 %tobool, label %if.then, label %if.end

if.then:                                          ; preds = %entry
  br label %if.end15

if.end:                                           ; preds = %entry
  %call1 = call noundef signext i8 @_ZNK6icu_7511StringPiece5emptyEv(ptr noundef nonnull align 8 dereferenceable(12) %input)
  %tobool2 = icmp ne i8 %call1, 0
  br i1 %tobool2, label %if.then3, label %if.else

if.then3:                                         ; preds = %if.end
  %4 = load ptr, ptr %dest.addr, align 8
  %arrayidx = getelementptr inbounds i8, ptr %4, i64 0
  store i8 0, ptr %arrayidx, align 1
  br label %if.end15

if.else:                                          ; preds = %if.end
  %5 = load ptr, ptr %test.addr, align 8
  %call4 = call noundef ptr @_ZNK6icu_7511StringPiece4dataEv(ptr noundef nonnull align 8 dereferenceable(12) %input)
  %call5 = call noundef i32 @_ZNK6icu_7511StringPiece6lengthEv(ptr noundef nonnull align 8 dereferenceable(12) %input)
  %call6 = call noundef signext i8 %5(ptr noundef %call4, i32 noundef %call5)
  %tobool7 = icmp ne i8 %call6, 0
  br i1 %tobool7, label %if.then8, label %if.else13

if.then8:                                         ; preds = %if.else
  br label %do.body

do.body:                                          ; preds = %if.then8
  %6 = load ptr, ptr %dest.addr, align 8
  %call9 = call noundef ptr @_ZNK6icu_7511StringPiece4dataEv(ptr noundef nonnull align 8 dereferenceable(12) %input)
  %call10 = call noundef i32 @_ZNK6icu_7511StringPiece6lengthEv(ptr noundef nonnull align 8 dereferenceable(12) %input)
  %conv = sext i32 %call10 to i64
  call void @llvm.memcpy.p0.p0.i64(ptr align 1 %6, ptr align 1 %call9, i64 %conv, i1 false)
  br label %do.end

do.end:                                           ; preds = %do.body
  %7 = load ptr, ptr %dest.addr, align 8
  %call11 = call noundef i32 @_ZNK6icu_7511StringPiece6lengthEv(ptr noundef nonnull align 8 dereferenceable(12) %input)
  %idxprom = sext i32 %call11 to i64
  %arrayidx12 = getelementptr inbounds i8, ptr %7, i64 %idxprom
  store i8 0, ptr %arrayidx12, align 1
  br label %if.end14

if.else13:                                        ; preds = %if.else
  %8 = load ptr, ptr %errorCode.addr, align 8
  store i32 1, ptr %8, align 4
  br label %if.end14

if.end14:                                         ; preds = %if.else13, %do.end
  br label %if.end15

if.end15:                                         ; preds = %if.end14, %if.then3, %if.then
  ret void
}

; Function Attrs: mustprogress uwtable
define noundef nonnull align 8 dereferenceable(48) ptr @_ZN6icu_7513LocaleBuilder9setRegionENS_11StringPieceE(ptr noundef nonnull align 8 dereferenceable(48) %this, ptr %region.coerce0, i32 %region.coerce1) #1 align 2 {
entry:
  %region = alloca %"class.icu_75::StringPiece", align 8
  %this.addr = alloca ptr, align 8
  %agg.tmp = alloca %"class.icu_75::StringPiece", align 8
  %0 = getelementptr inbounds { ptr, i32 }, ptr %region, i32 0, i32 0
  store ptr %region.coerce0, ptr %0, align 8
  %1 = getelementptr inbounds { ptr, i32 }, ptr %region, i32 0, i32 1
  store i32 %region.coerce1, ptr %1, align 8
  store ptr %this, ptr %this.addr, align 8
  %this1 = load ptr, ptr %this.addr, align 8
  call void @llvm.memcpy.p0.p0.i64(ptr align 8 %agg.tmp, ptr align 8 %region, i64 16, i1 false)
  %region_ = getelementptr inbounds %"class.icu_75::LocaleBuilder", ptr %this1, i32 0, i32 4
  %arraydecay = getelementptr inbounds [4 x i8], ptr %region_, i64 0, i64 0
  %status_ = getelementptr inbounds %"class.icu_75::LocaleBuilder", ptr %this1, i32 0, i32 1
  %2 = getelementptr inbounds { ptr, i32 }, ptr %agg.tmp, i32 0, i32 0
  %3 = load ptr, ptr %2, align 8
  %4 = getelementptr inbounds { ptr, i32 }, ptr %agg.tmp, i32 0, i32 1
  %5 = load i32, ptr %4, align 8
  call void @_ZN6icu_75L8setFieldENS_11StringPieceEPcR10UErrorCodePFaPKciE(ptr %3, i32 %5, ptr noundef %arraydecay, ptr noundef nonnull align 4 dereferenceable(4) %status_, ptr noundef @ultag_isRegionSubtag_75)
  ret ptr %this1
}